(dp0
Vengine
p1
S'pdflatex'
p2
sVpackages
p3
c__builtin__
set
p4
((lp5
Vhyperref
p6
aVbooktabs
p7
aVamsmath
p8
aVbm
p9
aVfloat
p10
aValgorithm2e
p11
aVamsthm
p12
aVtabularx
p13
aVnatbib
p14
aVamssymb
p15
atp16
Rp17
sVfiles_with_guttermarks
p18
g4
((lp19
S'abstract.tex'
p20
aV/Users/matthewjdenny/Dropbox/PINLab/Papers/WIN_15_Abstract/abstract.tex
p21
aV/Users/matthewjdenny/Dropbox/PINLab/Papers/WIN_15_Abstract/./abstract.tex
p22
atp23
Rp24
sVsynctex
p25
I01
s.