(dp0
Vengine
p1
S'pdflatex'
p2
sVpackages
p3
c__builtin__
set
p4
((lp5
Vhyperref
p6
aVbooktabs
p7
aVamsmath
p8
aVbm
p9
aVfloat
p10
aValgorithm2e
p11
aVamsthm
p12
aVtabularx
p13
aVadjustbox
p14
aVarray
p15
aVnatbib
p16
aVamssymb
p17
atp18
Rp19
sVfiles_with_guttermarks
p20
g4
((lp21
S'abstract.tex'
p22
aV/Users/matthewjdenny/Dropbox/PINLab/Papers/WIN_15_Abstract/abstract.tex
p23
aV/Users/matthewjdenny/Dropbox/PINLab/Papers/WIN_15_Abstract/./abstract.tex
p24
atp25
Rp26
sVsynctex
p27
I01
s.