(dp0
Vengine
p1
S'pdflatex'
p2
sVpackages
p3
c__builtin__
set
p4
((lp5
tp6
Rp7
sVfiles_with_guttermarks
p8
g4
((lp9
V/Users/matthewjdenny/Dropbox/PINLab/Papers/WIN_15_Abstract/Paper_Outline/./Article_Outline.tex
p10
aV/Users/matthewjdenny/Dropbox/PINLab/Papers/WIN_15_Abstract/Paper_Outline/Article_Outline.tex
p11
aS'Article_Outline.tex'
p12
atp13
Rp14
sVsynctex
p15
I01
s.